; Function Attrs: mustprogress nounwind uwtable
define void @_ZN11OpenImageIO6v3_1_04SHA1D2Ev(ptr noundef nonnull readonly align 8 captures(none) dereferenceable(9) %0) unnamed_addr #7 align 2 {
  %2 = load ptr, ptr %0, align 8, !tbaa !10
  %3 = icmp eq ptr %2, null
  br i1 %3, label %5, label %4

4:                                                ; preds = %1
  tail call void @_ZdlPvm(ptr noundef nonnull %2, i64 noundef 200) #21
  br label %5

5:                                                ; preds = %4, %1
  ret void
}